target datalayout = "e-m:e-p270:32:32-p271:32:32-p272:64:64-i64:64-i128:128-f80:128-n8:16:32:64-S128"
target triple = "x86_64-pc-linux-gnu"

%struct.VP8EncProba = type { [3 x i8], i8, [4 x [8 x [3 x [11 x i8]]]], [4 x [8 x [3 x [11 x i32]]]], [4 x [8 x [3 x [68 x i16]]]], [4 x [16 x [3 x ptr]]], i32, i32, i32 }
%struct.VP8Residual = type { i32, i32, ptr, i32, ptr, ptr, ptr }
%struct.VP8Encoder = type { ptr, ptr, %struct.VP8EncFilterHeader, %struct.VP8EncSegmentHeader, i32, i32, i32, i32, i32, %struct.VP8BitWriter, [8 x %struct.VP8BitWriter], %struct.VP8TBuffer, i32, i32, ptr, i32, %struct.WebPWorker, [4 x %struct.VP8SegmentInfo], i32, i32, i32, i32, i32, i32, i32, i32, %struct.VP8EncProba, [4 x i64], i64, i32, [3 x [4 x i32]], [3 x i32], i32, i32, i32, i32, i32, i32, i32, ptr, ptr, ptr, ptr, ptr, ptr, ptr }
%struct.VP8EncFilterHeader = type { i32, i32, i32, i32 }
%struct.VP8EncSegmentHeader = type { i32, i32, i32 }
%struct.VP8BitWriter = type { i32, i32, i32, i32, ptr, i64, i64, i32 }
%struct.VP8TBuffer = type { ptr, ptr, ptr, i32, i32, i32 }
%struct.WebPWorker = type { ptr, i32, ptr, ptr, ptr, i32 }
%struct.VP8SegmentInfo = type { %struct.VP8Matrix, %struct.VP8Matrix, %struct.VP8Matrix, i32, i32, i32, i32, i32, i32, i32, i32, i32, i32, i32, i32, i32, i32, i32, i64 }
%struct.VP8Matrix = type { [16 x i16], [16 x i16], [16 x i32], [16 x i32], [16 x i16] }

; Function Attrs: nounwind uwtable
define hidden void @VP8InitResidual(i32 noundef %0, i32 noundef %1, ptr noundef %2, ptr noundef %3) #0 {
  %5 = alloca i32, align 4
  %6 = alloca i32, align 4
  %7 = alloca ptr, align 8
  %8 = alloca ptr, align 8
  store i32 %0, ptr %5, align 4
  store i32 %1, ptr %6, align 4
  store ptr %2, ptr %7, align 8
  store ptr %3, ptr %8, align 8
  %9 = load i32, ptr %6, align 4
  %10 = load ptr, ptr %8, align 8
  %11 = getelementptr inbounds %struct.VP8Residual, ptr %10, i32 0, i32 3
  store i32 %9, ptr %11, align 8
  %12 = load ptr, ptr %7, align 8
  %13 = getelementptr inbounds %struct.VP8Encoder, ptr %12, i32 0, i32 26
  %14 = getelementptr inbounds %struct.VP8EncProba, ptr %13, i32 0, i32 2
  %15 = load i32, ptr %6, align 4
  %16 = sext i32 %15 to i64
  %17 = getelementptr inbounds [4 x [8 x [3 x [11 x i8]]]], ptr %14, i64 0, i64 %16
  %18 = getelementptr inbounds [8 x [3 x [11 x i8]]], ptr %17, i64 0, i64 0
  %19 = load ptr, ptr %8, align 8
  %20 = getelementptr inbounds %struct.VP8Residual, ptr %19, i32 0, i32 4
  store ptr %18, ptr %20, align 8
  %21 = load ptr, ptr %7, align 8
  %22 = getelementptr inbounds %struct.VP8Encoder, ptr %21, i32 0, i32 26
  %23 = getelementptr inbounds %struct.VP8EncProba, ptr %22, i32 0, i32 3
  %24 = load i32, ptr %6, align 4
  %25 = sext i32 %24 to i64
  %26 = getelementptr inbounds [4 x [8 x [3 x [11 x i32]]]], ptr %23, i64 0, i64 %25
  %27 = getelementptr inbounds [8 x [3 x [11 x i32]]], ptr %26, i64 0, i64 0
  %28 = load ptr, ptr %8, align 8
  %29 = getelementptr inbounds %struct.VP8Residual, ptr %28, i32 0, i32 5
  store ptr %27, ptr %29, align 8
  %30 = load ptr, ptr %7, align 8
  %31 = getelementptr inbounds %struct.VP8Encoder, ptr %30, i32 0, i32 26
  %32 = getelementptr inbounds %struct.VP8EncProba, ptr %31, i32 0, i32 5
  %33 = load i32, ptr %6, align 4
  %34 = sext i32 %33 to i64
  %35 = getelementptr inbounds [4 x [16 x [3 x ptr]]], ptr %32, i64 0, i64 %34
  %36 = getelementptr inbounds [16 x [3 x ptr]], ptr %35, i64 0, i64 0
  %37 = load ptr, ptr %8, align 8
  %38 = getelementptr inbounds %struct.VP8Residual, ptr %37, i32 0, i32 6
  store ptr %36, ptr %38, align 8
  %39 = load i32, ptr %5, align 4
  %40 = load ptr, ptr %8, align 8
  %41 = getelementptr inbounds %struct.VP8Residual, ptr %40, i32 0, i32 0
  store i32 %39, ptr %41, align 8
  ret void
}