; Function Attrs: mustprogress nofree norecurse nosync nounwind willreturn memory(argmem: write) uwtable
define hidden void @VP8InitResidual(i32 noundef %0, i32 noundef %1, ptr noundef %2, ptr nocapture noundef writeonly %3) local_unnamed_addr #1 {
  %5 = getelementptr inbounds i8, ptr %3, i64 16
  store i32 %1, ptr %5, align 8
  %6 = getelementptr inbounds i8, ptr %2, i64 3620
  %7 = sext i32 %1 to i64
  %8 = getelementptr inbounds [4 x [8 x [3 x [11 x i8]]]], ptr %6, i64 0, i64 %7
  %9 = getelementptr inbounds i8, ptr %3, i64 24
  store ptr %8, ptr %9, align 8
  %10 = getelementptr inbounds i8, ptr %2, i64 4676
  %11 = getelementptr inbounds [4 x [8 x [3 x [11 x i32]]]], ptr %10, i64 0, i64 %7
  %12 = getelementptr inbounds i8, ptr %3, i64 32
  store ptr %11, ptr %12, align 8
  %13 = getelementptr inbounds i8, ptr %2, i64 21960
  %14 = getelementptr inbounds [4 x [16 x [3 x ptr]]], ptr %13, i64 0, i64 %7
  %15 = getelementptr inbounds i8, ptr %3, i64 40
  store ptr %14, ptr %15, align 8
  store i32 %0, ptr %3, align 8
  ret void
}